; Function Attrs: nofree norecurse nosync nounwind memory(readwrite, inaccessiblemem: none) uwtable
define void @Cudd_IterDerefBdd(ptr noundef captures(none) %0, ptr noundef %1) local_unnamed_addr #1 {
  %3 = getelementptr inbounds nuw i8, ptr %0, i64 280
  %4 = load ptr, ptr %3, align 8, !tbaa !11
  %5 = getelementptr inbounds nuw i8, ptr %0, i64 228
  %6 = load i32, ptr %5, align 4, !tbaa !25
  %7 = getelementptr inbounds nuw i8, ptr %0, i64 236
  %8 = load i32, ptr %7, align 4, !tbaa !26
  %9 = sub i32 %6, %8
  %10 = getelementptr inbounds nuw i8, ptr %0, i64 728
  %11 = load i32, ptr %10, align 8, !tbaa !27
  %12 = icmp ugt i32 %9, %11
  br i1 %12, label %13, label %14

13:                                               ; preds = %2
  store i32 %9, ptr %10, align 8, !tbaa !27
  br label %14

14:                                               ; preds = %13, %2
  %15 = ptrtoint ptr %1 to i64
  %16 = and i64 %15, -2
  %17 = inttoptr i64 %16 to ptr
  %18 = getelementptr inbounds nuw i8, ptr %0, i64 312
  %19 = getelementptr inbounds nuw i8, ptr %0, i64 152
  br label %20

20:                                               ; preds = %51, %14
  %21 = phi i32 [ %8, %14 ], [ %52, %51 ]
  %.022 = phi i32 [ 1, %14 ], [ %.123, %51 ]
  %.0 = phi ptr [ %17, %14 ], [ %.1, %51 ]
  %22 = getelementptr inbounds nuw i8, ptr %.0, i64 4
  %23 = load i32, ptr %22, align 4, !tbaa !3
  %24 = icmp eq i32 %23, 1
  br i1 %24, label %25, label %46

25:                                               ; preds = %20
  store i32 0, ptr %22, align 4, !tbaa !3
  %26 = add i32 %21, 1
  store i32 %26, ptr %7, align 4, !tbaa !26
  %27 = load ptr, ptr %18, align 8, !tbaa !30
  %28 = load i32, ptr %.0, align 8, !tbaa !28
  %29 = zext i32 %28 to i64
  %30 = getelementptr inbounds nuw i32, ptr %27, i64 %29
  %31 = load i32, ptr %30, align 4, !tbaa !31
  %32 = getelementptr inbounds nuw i8, ptr %.0, i64 16
  %33 = getelementptr inbounds nuw i8, ptr %.0, i64 24
  %34 = load ptr, ptr %33, align 8, !tbaa !32
  %35 = ptrtoint ptr %34 to i64
  %36 = and i64 %35, -2
  %37 = inttoptr i64 %36 to ptr
  %38 = add nsw i32 %.022, 1
  %39 = sext i32 %.022 to i64
  %40 = getelementptr inbounds ptr, ptr %4, i64 %39
  store ptr %37, ptr %40, align 8, !tbaa !33
  %41 = load ptr, ptr %19, align 8, !tbaa !34
  %42 = sext i32 %31 to i64
  %43 = getelementptr inbounds %struct.DdSubtable, ptr %41, i64 %42, i32 5
  %44 = load i32, ptr %43, align 8, !tbaa !35
  %45 = add i32 %44, 1
  store i32 %45, ptr %43, align 8, !tbaa !35
  br label %51

46:                                               ; preds = %20
  %47 = add i32 %23, -1
  store i32 %47, ptr %22, align 4, !tbaa !3
  %48 = add nsw i32 %.022, -1
  %49 = sext i32 %48 to i64
  %50 = getelementptr inbounds ptr, ptr %4, i64 %49
  br label %51

51:                                               ; preds = %25, %46
  %52 = phi i32 [ %26, %25 ], [ %21, %46 ]
  %.123 = phi i32 [ %38, %25 ], [ %48, %46 ]
  %.1.in = phi ptr [ %32, %25 ], [ %50, %46 ]
  %.1 = load ptr, ptr %.1.in, align 8, !tbaa !32
  %.not = icmp eq i32 %.123, 0
  br i1 %.not, label %53, label %20, !llvm.loop !38

53:                                               ; preds = %51
  ret void
}